; Function Attrs: mustprogress nounwind uwtable
define void @uprv_dl_close_77(ptr noundef %0, ptr noundef readonly captures(none) %1) local_unnamed_addr #0 {
  %3 = load i32, ptr %1, align 4, !tbaa !13
  %4 = icmp slt i32 %3, 1
  br i1 %4, label %5, label %7

5:                                                ; preds = %2
  %6 = tail call i32 @dlclose(ptr noundef %0) #32
  br label %7

7:                                                ; preds = %2, %5
  ret void
}